target datalayout = "e-m:e-p270:32:32-p271:32:32-p272:64:64-i64:64-i128:128-f80:128-n8:16:32:64-S128"
target triple = "x86_64-pc-linux-gnu"

%struct.H5HF_dtable_t = type { %struct.H5HF_dtable_cparam_t, i64, i32, i32, i32, i32, i32, i32, i32, i64, ptr, ptr, ptr, ptr }
%struct.H5HF_dtable_cparam_t = type { i32, i64, i64, i32, i32 }

@H5HF_init_g = external global i8, align 1
@H5_libterm_g = external global i8, align 1

; Function Attrs: nounwind uwtable
define i64 @H5HF__dtable_span_size(ptr noundef %0, i32 noundef %1, i32 noundef %2, i32 noundef %3) #0 {
  %5 = alloca ptr, align 8
  %6 = alloca i32, align 4
  %7 = alloca i32, align 4
  %8 = alloca i32, align 4
  %9 = alloca i32, align 4
  %10 = alloca i32, align 4
  %11 = alloca i32, align 4
  %12 = alloca i32, align 4
  %13 = alloca i64, align 8
  store ptr %0, ptr %5, align 8, !tbaa !3
  store i32 %1, ptr %6, align 4, !tbaa !8
  store i32 %2, ptr %7, align 4, !tbaa !8
  store i32 %3, ptr %8, align 4, !tbaa !8
  call void @llvm.lifetime.start.p0(i64 4, ptr %9) #7
  call void @llvm.lifetime.start.p0(i64 4, ptr %10) #7
  call void @llvm.lifetime.start.p0(i64 4, ptr %11) #7
  call void @llvm.lifetime.start.p0(i64 4, ptr %12) #7
  call void @llvm.lifetime.start.p0(i64 8, ptr %13) #7
  store i64 0, ptr %13, align 8, !tbaa !30
  %14 = load i8, ptr @H5HF_init_g, align 1, !tbaa !10, !range !12, !noundef !13
  %15 = trunc i8 %14 to i1
  br i1 %15, label %20, label %16

16:                                               ; preds = %4
  %17 = load i8, ptr @H5_libterm_g, align 1, !tbaa !10, !range !12, !noundef !13
  %18 = trunc i8 %17 to i1
  %19 = xor i1 %18, true
  br label %20

20:                                               ; preds = %16, %4
  %21 = phi i1 [ true, %4 ], [ %19, %16 ]
  %22 = xor i1 %21, true
  %23 = xor i1 %22, true
  %24 = zext i1 %23 to i32
  %25 = sext i32 %24 to i64
  %26 = call i64 @llvm.expect.i64(i64 %25, i64 1)
  %27 = icmp ne i64 %26, 0
  br i1 %27, label %28, label %129

28:                                               ; preds = %20
  %29 = load i32, ptr %6, align 4, !tbaa !8
  %30 = load ptr, ptr %5, align 8, !tbaa !3
  %31 = getelementptr inbounds nuw %struct.H5HF_dtable_t, ptr %30, i32 0, i32 0
  %32 = getelementptr inbounds nuw %struct.H5HF_dtable_cparam_t, ptr %31, i32 0, i32 0
  %33 = load i32, ptr %32, align 8, !tbaa !20
  %34 = mul i32 %29, %33
  %35 = load i32, ptr %7, align 4, !tbaa !8
  %36 = add i32 %34, %35
  store i32 %36, ptr %9, align 4, !tbaa !8
  %37 = load i32, ptr %9, align 4, !tbaa !8
  %38 = load i32, ptr %8, align 4, !tbaa !8
  %39 = add i32 %37, %38
  %40 = sub i32 %39, 1
  store i32 %40, ptr %12, align 4, !tbaa !8
  %41 = load i32, ptr %12, align 4, !tbaa !8
  %42 = load ptr, ptr %5, align 8, !tbaa !3
  %43 = getelementptr inbounds nuw %struct.H5HF_dtable_t, ptr %42, i32 0, i32 0
  %44 = getelementptr inbounds nuw %struct.H5HF_dtable_cparam_t, ptr %43, i32 0, i32 0
  %45 = load i32, ptr %44, align 8, !tbaa !20
  %46 = udiv i32 %41, %45
  store i32 %46, ptr %10, align 4, !tbaa !8
  %47 = load i32, ptr %12, align 4, !tbaa !8
  %48 = load ptr, ptr %5, align 8, !tbaa !3
  %49 = getelementptr inbounds nuw %struct.H5HF_dtable_t, ptr %48, i32 0, i32 0
  %50 = getelementptr inbounds nuw %struct.H5HF_dtable_cparam_t, ptr %49, i32 0, i32 0
  %51 = load i32, ptr %50, align 8, !tbaa !20
  %52 = urem i32 %47, %51
  store i32 %52, ptr %11, align 4, !tbaa !8
  store i64 0, ptr %13, align 8, !tbaa !30
  %53 = load i32, ptr %6, align 4, !tbaa !8
  %54 = load i32, ptr %10, align 4, !tbaa !8
  %55 = icmp ne i32 %53, %54
  br i1 %55, label %56, label %114

56:                                               ; preds = %28
  %57 = load i32, ptr %7, align 4, !tbaa !8
  %58 = icmp ugt i32 %57, 0
  br i1 %58, label %59, label %77

59:                                               ; preds = %56
  %60 = load ptr, ptr %5, align 8, !tbaa !3
  %61 = getelementptr inbounds nuw %struct.H5HF_dtable_t, ptr %60, i32 0, i32 10
  %62 = load ptr, ptr %61, align 8, !tbaa !29
  %63 = load i32, ptr %6, align 4, !tbaa !8
  %64 = zext i32 %63 to i64
  %65 = getelementptr inbounds nuw i64, ptr %62, i64 %64
  %66 = load i64, ptr %65, align 8, !tbaa !30
  %67 = load ptr, ptr %5, align 8, !tbaa !3
  %68 = getelementptr inbounds nuw %struct.H5HF_dtable_t, ptr %67, i32 0, i32 0
  %69 = getelementptr inbounds nuw %struct.H5HF_dtable_cparam_t, ptr %68, i32 0, i32 0
  %70 = load i32, ptr %69, align 8, !tbaa !20
  %71 = load i32, ptr %7, align 4, !tbaa !8
  %72 = sub i32 %70, %71
  %73 = zext i32 %72 to i64
  %74 = mul i64 %66, %73
  store i64 %74, ptr %13, align 8, !tbaa !30
  %75 = load i32, ptr %6, align 4, !tbaa !8
  %76 = add i32 %75, 1
  store i32 %76, ptr %6, align 4, !tbaa !8
  br label %77

77:                                               ; preds = %59, %56
  br label %78

78:                                               ; preds = %82, %77
  %79 = load i32, ptr %6, align 4, !tbaa !8
  %80 = load i32, ptr %10, align 4, !tbaa !8
  %81 = icmp ult i32 %79, %80
  br i1 %81, label %82, label %100

82:                                               ; preds = %78
  %83 = load ptr, ptr %5, align 8, !tbaa !3
  %84 = getelementptr inbounds nuw %struct.H5HF_dtable_t, ptr %83, i32 0, i32 10
  %85 = load ptr, ptr %84, align 8, !tbaa !29
  %86 = load i32, ptr %6, align 4, !tbaa !8
  %87 = zext i32 %86 to i64
  %88 = getelementptr inbounds nuw i64, ptr %85, i64 %87
  %89 = load i64, ptr %88, align 8, !tbaa !30
  %90 = load ptr, ptr %5, align 8, !tbaa !3
  %91 = getelementptr inbounds nuw %struct.H5HF_dtable_t, ptr %90, i32 0, i32 0
  %92 = getelementptr inbounds nuw %struct.H5HF_dtable_cparam_t, ptr %91, i32 0, i32 0
  %93 = load i32, ptr %92, align 8, !tbaa !20
  %94 = zext i32 %93 to i64
  %95 = mul i64 %89, %94
  %96 = load i64, ptr %13, align 8, !tbaa !30
  %97 = add i64 %96, %95
  store i64 %97, ptr %13, align 8, !tbaa !30
  %98 = load i32, ptr %6, align 4, !tbaa !8
  %99 = add i32 %98, 1
  store i32 %99, ptr %6, align 4, !tbaa !8
  br label %78, !llvm.loop !39

100:                                              ; preds = %78
  %101 = load ptr, ptr %5, align 8, !tbaa !3
  %102 = getelementptr inbounds nuw %struct.H5HF_dtable_t, ptr %101, i32 0, i32 10
  %103 = load ptr, ptr %102, align 8, !tbaa !29
  %104 = load i32, ptr %6, align 4, !tbaa !8
  %105 = zext i32 %104 to i64
  %106 = getelementptr inbounds nuw i64, ptr %103, i64 %105
  %107 = load i64, ptr %106, align 8, !tbaa !30
  %108 = load i32, ptr %11, align 4, !tbaa !8
  %109 = add i32 %108, 1
  %110 = zext i32 %109 to i64
  %111 = mul i64 %107, %110
  %112 = load i64, ptr %13, align 8, !tbaa !30
  %113 = add i64 %112, %111
  store i64 %113, ptr %13, align 8, !tbaa !30
  br label %128

114:                                              ; preds = %28
  %115 = load ptr, ptr %5, align 8, !tbaa !3
  %116 = getelementptr inbounds nuw %struct.H5HF_dtable_t, ptr %115, i32 0, i32 10
  %117 = load ptr, ptr %116, align 8, !tbaa !29
  %118 = load i32, ptr %6, align 4, !tbaa !8
  %119 = zext i32 %118 to i64
  %120 = getelementptr inbounds nuw i64, ptr %117, i64 %119
  %121 = load i64, ptr %120, align 8, !tbaa !30
  %122 = load i32, ptr %11, align 4, !tbaa !8
  %123 = load i32, ptr %7, align 4, !tbaa !8
  %124 = sub i32 %122, %123
  %125 = add i32 %124, 1
  %126 = zext i32 %125 to i64
  %127 = mul i64 %121, %126
  store i64 %127, ptr %13, align 8, !tbaa !30
  br label %128

128:                                              ; preds = %114, %100
  br label %129

129:                                              ; preds = %128, %20
  %130 = load i64, ptr %13, align 8, !tbaa !30
  call void @llvm.lifetime.end.p0(i64 8, ptr %13) #7
  call void @llvm.lifetime.end.p0(i64 4, ptr %12) #7
  call void @llvm.lifetime.end.p0(i64 4, ptr %11) #7
  call void @llvm.lifetime.end.p0(i64 4, ptr %10) #7
  call void @llvm.lifetime.end.p0(i64 4, ptr %9) #7
  ret i64 %130
}