; Function Attrs: nofree norecurse nosync nounwind memory(read, inaccessiblemem: none) uwtable
define i64 @H5HF__dtable_span_size(ptr noundef readonly captures(none) %0, i32 noundef %1, i32 noundef %2, i32 noundef %3) local_unnamed_addr #5 {
  %5 = load i8, ptr @H5HF_init_g, align 1, !tbaa !3, !range !7, !noundef !8
  %6 = trunc nuw i8 %5 to i1
  %7 = load i8, ptr @H5_libterm_g, align 1, !range !7
  %8 = trunc nuw i8 %7 to i1
  %9 = xor i1 %8, true
  %10 = select i1 %6, i1 true, i1 %9
  br i1 %10, label %11, label %60, !prof !9

11:                                               ; preds = %4
  %12 = load i32, ptr %0, align 8, !tbaa !19
  %13 = mul i32 %12, %1
  %14 = add i32 %2, -1
  %15 = add i32 %14, %3
  %16 = add i32 %15, %13
  %17 = udiv i32 %16, %12
  %18 = urem i32 %16, %12
  %.not = icmp eq i32 %1, %17
  br i1 %.not, label %51, label %19

19:                                               ; preds = %11
  %.not38 = icmp eq i32 %2, 0
  br i1 %.not38, label %30, label %20

20:                                               ; preds = %19
  %21 = getelementptr inbounds nuw i8, ptr %0, i64 80
  %22 = load ptr, ptr %21, align 8, !tbaa !28
  %23 = zext i32 %1 to i64
  %24 = getelementptr inbounds nuw i64, ptr %22, i64 %23
  %25 = load i64, ptr %24, align 8, !tbaa !29
  %26 = sub i32 %12, %2
  %27 = zext i32 %26 to i64
  %28 = mul i64 %25, %27
  %29 = add i32 %1, 1
  br label %30

30:                                               ; preds = %20, %19
  %.032 = phi i32 [ %29, %20 ], [ %1, %19 ]
  %.1 = phi i64 [ %28, %20 ], [ 0, %19 ]
  %31 = icmp ult i32 %.032, %17
  %32 = getelementptr inbounds nuw i8, ptr %0, i64 80
  %33 = load ptr, ptr %32, align 8, !tbaa !28
  br i1 %31, label %.lr.ph, label %._crit_edge

.lr.ph:                                           ; preds = %30
  %34 = zext i32 %12 to i64
  %35 = zext i32 %.032 to i64
  %36 = zext i32 %17 to i64
  br label %37

37:                                               ; preds = %.lr.ph, %37
  %indvars.iv = phi i64 [ %35, %.lr.ph ], [ %indvars.iv.next, %37 ]
  %.240 = phi i64 [ %.1, %.lr.ph ], [ %41, %37 ]
  %38 = getelementptr inbounds nuw i64, ptr %33, i64 %indvars.iv
  %39 = load i64, ptr %38, align 8, !tbaa !29
  %40 = mul i64 %39, %34
  %41 = add i64 %40, %.240
  %indvars.iv.next = add nuw nsw i64 %indvars.iv, 1
  %42 = icmp samesign ult i64 %indvars.iv.next, %36
  br i1 %42, label %37, label %._crit_edge.loopexit, !llvm.loop !36

._crit_edge.loopexit:                             ; preds = %37
  %43 = trunc nuw i64 %indvars.iv.next to i32
  br label %._crit_edge

._crit_edge:                                      ; preds = %30, %._crit_edge.loopexit
  %.133.lcssa = phi i32 [ %43, %._crit_edge.loopexit ], [ %.032, %30 ]
  %.2.lcssa = phi i64 [ %41, %._crit_edge.loopexit ], [ %.1, %30 ]
  %44 = zext i32 %.133.lcssa to i64
  %45 = getelementptr inbounds nuw i64, ptr %33, i64 %44
  %46 = load i64, ptr %45, align 8, !tbaa !29
  %47 = add i32 %18, 1
  %48 = zext i32 %47 to i64
  %49 = mul i64 %46, %48
  %50 = add i64 %49, %.2.lcssa
  br label %60

51:                                               ; preds = %11
  %52 = getelementptr inbounds nuw i8, ptr %0, i64 80
  %53 = load ptr, ptr %52, align 8, !tbaa !28
  %54 = zext i32 %1 to i64
  %55 = getelementptr inbounds nuw i64, ptr %53, i64 %54
  %56 = load i64, ptr %55, align 8, !tbaa !29
  %reass.sub = sub i32 %18, %2
  %57 = add i32 %reass.sub, 1
  %58 = zext i32 %57 to i64
  %59 = mul i64 %56, %58
  br label %60

60:                                               ; preds = %._crit_edge, %51, %4
  %.0 = phi i64 [ %50, %._crit_edge ], [ %59, %51 ], [ 0, %4 ]
  ret i64 %.0
}